(lp0
Vcustomer#c_custkey
p1
aVcustomer#c_custkey,c_mktsegment
p2
aVcustomer#c_mktsegment
p3
aVcustomer#c_mktsegment,c_custkey
p4
aVcustomer#c_nationkey
p5
aVlineitem#l_commitdate
p6
aVlineitem#l_commitdate,l_receiptdate
p7
aVlineitem#l_orderkey
p8
aVlineitem#l_orderkey,l_receiptdate
p9
aVlineitem#l_orderkey,l_returnflag
p10
aVlineitem#l_orderkey,l_shipdate
p11
aVlineitem#l_orderkey,l_shipmode
p12
aVlineitem#l_partkey
p13
aVlineitem#l_partkey,l_extendedprice,l_quantity
p14
aVlineitem#l_partkey,l_quantity
p15
aVlineitem#l_partkey,l_quantity,l_extendedprice
p16
aVlineitem#l_partkey,l_shipdate
p17
aVlineitem#l_partkey,l_suppkey
p18
aVlineitem#l_partkey,l_suppkey,l_shipdate
p19
aVlineitem#l_quantity
p20
aVlineitem#l_receiptdate
p21
aVlineitem#l_receiptdate,l_commitdate
p22
aVlineitem#l_returnflag
p23
aVlineitem#l_returnflag,l_orderkey
p24
aVlineitem#l_shipdate
p25
aVlineitem#l_shipmode
p26
aVlineitem#l_shipmode,l_orderkey
p27
aVlineitem#l_suppkey
p28
aVlineitem#l_suppkey,l_partkey
p29
aVlineitem#l_suppkey,l_partkey,l_shipdate
p30
aVlineitem#l_suppkey,l_shipdate
p31
aVnation#n_name
p32
aVnation#n_name,n_nationkey
p33
aVnation#n_nationkey
p34
aVnation#n_nationkey,n_name
p35
aVnation#n_regionkey
p36
aVorders#o_custkey
p37
aVorders#o_custkey,o_orderdate
p38
aVorders#o_custkey,o_orderdate,o_orderkey
p39
aVorders#o_orderdate
p40
aVorders#o_orderkey
p41
aVorders#o_orderkey,o_custkey,o_orderdate
p42
aVorders#o_orderkey,o_orderdate
p43
aVorders#o_orderkey,o_orderdate,o_custkey
p44
aVorders#o_orderkey,o_orderdate,o_orderpriority
p45
aVorders#o_orderkey,o_orderpriority,o_orderdate
p46
aVorders#o_orderkey,o_orderstatus
p47
aVorders#o_orderstatus
p48
aVorders#o_orderstatus,o_orderkey
p49
aVpart#p_brand
p50
aVpart#p_brand,p_container
p51
aVpart#p_brand,p_container,p_partkey
p52
aVpart#p_brand,p_partkey
p53
aVpart#p_brand,p_partkey,p_container
p54
aVpart#p_container
p55
aVpart#p_container,p_brand
p56
aVpart#p_container,p_brand,p_partkey
p57
aVpart#p_container,p_partkey
p58
aVpart#p_container,p_partkey,p_brand
p59
aVpart#p_partkey
p60
aVpart#p_partkey,p_brand
p61
aVpart#p_partkey,p_brand,p_container
p62
aVpart#p_partkey,p_container
p63
aVpart#p_partkey,p_container,p_brand
p64
aVpart#p_partkey,p_type
p65
aVpart#p_type
p66
aVpart#p_type,p_partkey
p67
aVpartsupp#ps_availqty
p68
aVpartsupp#ps_partkey
p69
aVpartsupp#ps_partkey,ps_availqty
p70
aVpartsupp#ps_partkey,ps_availqty,ps_suppkey
p71
aVpartsupp#ps_partkey,ps_suppkey
p72
aVpartsupp#ps_partkey,ps_suppkey,ps_availqty
p73
aVpartsupp#ps_suppkey
p74
aVpartsupp#ps_suppkey,ps_availqty
p75
aVpartsupp#ps_suppkey,ps_availqty,ps_partkey
p76
aVpartsupp#ps_suppkey,ps_partkey
p77
aVpartsupp#ps_suppkey,ps_partkey,ps_availqty
p78
aVregion#r_name
p79
aVregion#r_name,r_regionkey
p80
aVregion#r_regionkey
p81
aVregion#r_regionkey,r_name
p82
aVsupplier#s_nationkey
p83
aVsupplier#s_suppkey
p84
a.