(lp0
Vcustomer#c_custkey
p1
aVcustomer#c_mktsegment
p2
aVcustomer#c_nationkey
p3
aVlineitem#l_commitdate
p4
aVlineitem#l_orderkey
p5
aVlineitem#l_partkey
p6
aVlineitem#l_quantity
p7
aVlineitem#l_receiptdate
p8
aVlineitem#l_returnflag
p9
aVlineitem#l_shipdate
p10
aVlineitem#l_shipmode
p11
aVlineitem#l_suppkey
p12
aVnation#n_name
p13
aVnation#n_nationkey
p14
aVnation#n_regionkey
p15
aVorders#o_custkey
p16
aVorders#o_orderdate
p17
aVorders#o_orderkey
p18
aVorders#o_orderstatus
p19
aVpart#p_brand
p20
aVpart#p_container
p21
aVpart#p_partkey
p22
aVpart#p_type
p23
aVpartsupp#ps_availqty
p24
aVpartsupp#ps_partkey
p25
aVpartsupp#ps_suppkey
p26
aVregion#r_name
p27
aVregion#r_regionkey
p28
aVsupplier#s_nationkey
p29
aVsupplier#s_suppkey
p30
a.