(lp0
Vlineitem#l_commitdate
p1
aVlineitem#l_commitdate,l_receiptdate
p2
aVlineitem#l_orderkey
p3
aVlineitem#l_orderkey,l_receiptdate
p4
aVlineitem#l_orderkey,l_returnflag
p5
aVlineitem#l_orderkey,l_shipdate
p6
aVlineitem#l_orderkey,l_shipmode
p7
aVlineitem#l_partkey
p8
aVlineitem#l_partkey,l_extendedprice,l_quantity
p9
aVlineitem#l_partkey,l_quantity
p10
aVlineitem#l_partkey,l_quantity,l_extendedprice
p11
aVlineitem#l_partkey,l_shipdate
p12
aVlineitem#l_partkey,l_suppkey
p13
aVlineitem#l_partkey,l_suppkey,l_shipdate
p14
aVlineitem#l_quantity
p15
aVlineitem#l_receiptdate
p16
aVlineitem#l_receiptdate,l_commitdate
p17
aVlineitem#l_returnflag
p18
aVlineitem#l_returnflag,l_orderkey
p19
aVlineitem#l_shipdate
p20
aVlineitem#l_shipmode
p21
aVlineitem#l_shipmode,l_orderkey
p22
aVlineitem#l_suppkey
p23
aVlineitem#l_suppkey,l_partkey
p24
aVlineitem#l_suppkey,l_partkey,l_shipdate
p25
aVlineitem#l_suppkey,l_shipdate
p26
aVorders#o_custkey
p27
aVorders#o_custkey,o_orderdate
p28
aVorders#o_custkey,o_orderdate,o_orderkey
p29
aVorders#o_custkey,o_orderkey,o_orderdate
p30
aVorders#o_orderdate
p31
aVorders#o_orderkey
p32
aVorders#o_orderkey,o_orderdate
p33
aVorders#o_orderkey,o_orderdate,o_custkey
p34
aVorders#o_orderkey,o_orderdate,o_orderpriority
p35
aVorders#o_orderkey,o_orderstatus
p36
aVorders#o_orderstatus
p37
aVorders#o_orderstatus,o_orderkey
p38
a.